(lp0
(dp1
S'\nAdult                              '
p2
S'http://www.alexa.com/topsites/category/Top/Adult'
p3
sa(dp4
S'\nArts                              '
p5
S'http://www.alexa.com/topsites/category/Top/Arts'
p6
sa(dp7
S'\nBusiness                              '
p8
S'http://www.alexa.com/topsites/category/Top/Business'
p9
sa(dp10
S'\nComputers                              '
p11
S'http://www.alexa.com/topsites/category/Top/Computers'
p12
sa(dp13
S'\nGames                              '
p14
S'http://www.alexa.com/topsites/category/Top/Games'
p15
sa(dp16
S'\nHealth                              '
p17
S'http://www.alexa.com/topsites/category/Top/Health'
p18
sa(dp19
S'\nHome                              '
p20
S'http://www.alexa.com/topsites/category/Top/Home'
p21
sa(dp22
S'\nKids and Teens                              '
p23
S'http://www.alexa.com/topsites/category/Top/Kids_and_Teens'
p24
sa(dp25
S'\nNews                              '
p26
S'http://www.alexa.com/topsites/category/Top/News'
p27
sa(dp28
S'\nRecreation                              '
p29
S'http://www.alexa.com/topsites/category/Top/Recreation'
p30
sa(dp31
S'\nReference                              '
p32
S'http://www.alexa.com/topsites/category/Top/Reference'
p33
sa(dp34
S'\nRegional                              '
p35
S'http://www.alexa.com/topsites/category/Top/Regional'
p36
sa(dp37
S'\nScience                              '
p38
S'http://www.alexa.com/topsites/category/Top/Science'
p39
sa(dp40
S'\nShopping                              '
p41
S'http://www.alexa.com/topsites/category/Top/Shopping'
p42
sa(dp43
S'\nSociety                              '
p44
S'http://www.alexa.com/topsites/category/Top/Society'
p45
sa(dp46
S'\nSports                              '
p47
S'http://www.alexa.com/topsites/category/Top/Sports'
p48
sa(dp49
S'\nWorld                              '
p50
S'http://www.alexa.com/topsites/category/Top/World'
p51
sa.