(lp0
(dp1
S'Afghanistan'
p2
S'http://www.alexa.com/topsites/countries/AF'
p3
sa(dp4
S'Albania'
p5
S'http://www.alexa.com/topsites/countries/AL'
p6
sa(dp7
S'Algeria'
p8
S'http://www.alexa.com/topsites/countries/DZ'
p9
sa(dp10
S'Argentina'
p11
S'http://www.alexa.com/topsites/countries/AR'
p12
sa(dp13
S'Armenia'
p14
S'http://www.alexa.com/topsites/countries/AM'
p15
sa(dp16
S'Australia'
p17
S'http://www.alexa.com/topsites/countries/AU'
p18
sa(dp19
S'Austria'
p20
S'http://www.alexa.com/topsites/countries/AT'
p21
sa(dp22
S'Azerbaijan'
p23
S'http://www.alexa.com/topsites/countries/AZ'
p24
sa(dp25
S'Bahamas'
p26
S'http://www.alexa.com/topsites/countries/BS'
p27
sa(dp28
S'Bahrain'
p29
S'http://www.alexa.com/topsites/countries/BH'
p30
sa(dp31
S'Bangladesh'
p32
S'http://www.alexa.com/topsites/countries/BD'
p33
sa(dp34
S'Barbados'
p35
S'http://www.alexa.com/topsites/countries/BB'
p36
sa(dp37
S'Belarus'
p38
S'http://www.alexa.com/topsites/countries/BY'
p39
sa(dp40
S'Belgium'
p41
S'http://www.alexa.com/topsites/countries/BE'
p42
sa(dp43
S'Bolivia'
p44
S'http://www.alexa.com/topsites/countries/BO'
p45
sa(dp46
S'Bosnia and Herzegovina'
p47
S'http://www.alexa.com/topsites/countries/BA'
p48
sa(dp49
S'Brazil'
p50
S'http://www.alexa.com/topsites/countries/BR'
p51
sa(dp52
S'Bulgaria'
p53
S'http://www.alexa.com/topsites/countries/BG'
p54
sa(dp55
S'Cambodia'
p56
S'http://www.alexa.com/topsites/countries/KH'
p57
sa(dp58
S'Canada'
p59
S'http://www.alexa.com/topsites/countries/CA'
p60
sa(dp61
S'Chile'
p62
S'http://www.alexa.com/topsites/countries/CL'
p63
sa(dp64
S'China'
p65
S'http://www.alexa.com/topsites/countries/CN'
p66
sa(dp67
S'Colombia'
p68
S'http://www.alexa.com/topsites/countries/CO'
p69
sa(dp70
S'Costa Rica'
p71
S'http://www.alexa.com/topsites/countries/CR'
p72
sa(dp73
S'Croatia'
p74
S'http://www.alexa.com/topsites/countries/HR'
p75
sa(dp76
S'Cyprus'
p77
S'http://www.alexa.com/topsites/countries/CY'
p78
sa(dp79
S'Czech Republic'
p80
S'http://www.alexa.com/topsites/countries/CZ'
p81
sa(dp82
S'Denmark'
p83
S'http://www.alexa.com/topsites/countries/DK'
p84
sa(dp85
S'Dominican Republic'
p86
S'http://www.alexa.com/topsites/countries/DO'
p87
sa(dp88
S'Ecuador'
p89
S'http://www.alexa.com/topsites/countries/EC'
p90
sa(dp91
S'Egypt'
p92
S'http://www.alexa.com/topsites/countries/EG'
p93
sa(dp94
S'El Salvador'
p95
S'http://www.alexa.com/topsites/countries/SV'
p96
sa(dp97
S'Estonia'
p98
S'http://www.alexa.com/topsites/countries/EE'
p99
sa(dp100
S'Finland'
p101
S'http://www.alexa.com/topsites/countries/FI'
p102
sa(dp103
S'France'
p104
S'http://www.alexa.com/topsites/countries/FR'
p105
sa(dp106
S'Georgia'
p107
S'http://www.alexa.com/topsites/countries/GE'
p108
sa(dp109
S'Germany'
p110
S'http://www.alexa.com/topsites/countries/DE'
p111
sa(dp112
S'Ghana'
p113
S'http://www.alexa.com/topsites/countries/GH'
p114
sa(dp115
S'Greece'
p116
S'http://www.alexa.com/topsites/countries/GR'
p117
sa(dp118
S'Guatemala'
p119
S'http://www.alexa.com/topsites/countries/GT'
p120
sa(dp121
S'Hong Kong'
p122
S'http://www.alexa.com/topsites/countries/HK'
p123
sa(dp124
S'Hungary'
p125
S'http://www.alexa.com/topsites/countries/HU'
p126
sa(dp127
S'Iceland'
p128
S'http://www.alexa.com/topsites/countries/IS'
p129
sa(dp130
S'India'
p131
S'http://www.alexa.com/topsites/countries/IN'
p132
sa(dp133
S'Indonesia'
p134
S'http://www.alexa.com/topsites/countries/ID'
p135
sa(dp136
S'Iran'
p137
S'http://www.alexa.com/topsites/countries/IR'
p138
sa(dp139
S'Iraq'
p140
S'http://www.alexa.com/topsites/countries/IQ'
p141
sa(dp142
S'Ireland'
p143
S'http://www.alexa.com/topsites/countries/IE'
p144
sa(dp145
S'Israel'
p146
S'http://www.alexa.com/topsites/countries/IL'
p147
sa(dp148
S'Italy'
p149
S'http://www.alexa.com/topsites/countries/IT'
p150
sa(dp151
S'Jamaica'
p152
S'http://www.alexa.com/topsites/countries/JM'
p153
sa(dp154
S'Japan'
p155
S'http://www.alexa.com/topsites/countries/JP'
p156
sa(dp157
S'Jordan'
p158
S'http://www.alexa.com/topsites/countries/JO'
p159
sa(dp160
S'Kazakhstan'
p161
S'http://www.alexa.com/topsites/countries/KZ'
p162
sa(dp163
S'Kenya'
p164
S'http://www.alexa.com/topsites/countries/KE'
p165
sa(dp166
S'Kuwait'
p167
S'http://www.alexa.com/topsites/countries/KW'
p168
sa(dp169
S'Kyrgyzstan'
p170
S'http://www.alexa.com/topsites/countries/KG'
p171
sa(dp172
S'Latvia'
p173
S'http://www.alexa.com/topsites/countries/LV'
p174
sa(dp175
S'Lithuania'
p176
S'http://www.alexa.com/topsites/countries/LT'
p177
sa(dp178
S'Luxembourg'
p179
S'http://www.alexa.com/topsites/countries/LU'
p180
sa(dp181
S'Macao'
p182
S'http://www.alexa.com/topsites/countries/MO'
p183
sa(dp184
S'Macedonia'
p185
S'http://www.alexa.com/topsites/countries/MK'
p186
sa(dp187
S'Madagascar'
p188
S'http://www.alexa.com/topsites/countries/MG'
p189
sa(dp190
S'Malaysia'
p191
S'http://www.alexa.com/topsites/countries/MY'
p192
sa(dp193
S'Malta'
p194
S'http://www.alexa.com/topsites/countries/MT'
p195
sa(dp196
S'Mauritania'
p197
S'http://www.alexa.com/topsites/countries/MR'
p198
sa(dp199
S'Mauritius'
p200
S'http://www.alexa.com/topsites/countries/MU'
p201
sa(dp202
S'Mexico'
p203
S'http://www.alexa.com/topsites/countries/MX'
p204
sa(dp205
S'Moldova'
p206
S'http://www.alexa.com/topsites/countries/MD'
p207
sa(dp208
S'Montenegro'
p209
S'http://www.alexa.com/topsites/countries/ME'
p210
sa(dp211
S'Morocco'
p212
S'http://www.alexa.com/topsites/countries/MA'
p213
sa(dp214
S'Nepal'
p215
S'http://www.alexa.com/topsites/countries/NP'
p216
sa(dp217
S'Netherlands'
p218
S'http://www.alexa.com/topsites/countries/NL'
p219
sa(dp220
S'New Zealand'
p221
S'http://www.alexa.com/topsites/countries/NZ'
p222
sa(dp223
S'Nigeria'
p224
S'http://www.alexa.com/topsites/countries/NG'
p225
sa(dp226
S'Norway'
p227
S'http://www.alexa.com/topsites/countries/NO'
p228
sa(dp229
S'Oman'
p230
S'http://www.alexa.com/topsites/countries/OM'
p231
sa(dp232
S'Pakistan'
p233
S'http://www.alexa.com/topsites/countries/PK'
p234
sa(dp235
S'Palestinian Territory'
p236
S'http://www.alexa.com/topsites/countries/PS'
p237
sa(dp238
S'Panama'
p239
S'http://www.alexa.com/topsites/countries/PA'
p240
sa(dp241
S'Paraguay'
p242
S'http://www.alexa.com/topsites/countries/PY'
p243
sa(dp244
S'Peru'
p245
S'http://www.alexa.com/topsites/countries/PE'
p246
sa(dp247
S'Philippines'
p248
S'http://www.alexa.com/topsites/countries/PH'
p249
sa(dp250
S'Poland'
p251
S'http://www.alexa.com/topsites/countries/PL'
p252
sa(dp253
S'Portugal'
p254
S'http://www.alexa.com/topsites/countries/PT'
p255
sa(dp256
S'Puerto Rico'
p257
S'http://www.alexa.com/topsites/countries/PR'
p258
sa(dp259
S'Qatar'
p260
S'http://www.alexa.com/topsites/countries/QA'
p261
sa(dp262
S'Reunion'
p263
S'http://www.alexa.com/topsites/countries/RE'
p264
sa(dp265
S'Romania'
p266
S'http://www.alexa.com/topsites/countries/RO'
p267
sa(dp268
S'Russia'
p269
S'http://www.alexa.com/topsites/countries/RU'
p270
sa(dp271
S'Saudi Arabia'
p272
S'http://www.alexa.com/topsites/countries/SA'
p273
sa(dp274
S'Serbia'
p275
S'http://www.alexa.com/topsites/countries/RS'
p276
sa(dp277
S'Singapore'
p278
S'http://www.alexa.com/topsites/countries/SG'
p279
sa(dp280
S'Slovakia'
p281
S'http://www.alexa.com/topsites/countries/SK'
p282
sa(dp283
S'Slovenia'
p284
S'http://www.alexa.com/topsites/countries/SI'
p285
sa(dp286
S'South Africa'
p287
S'http://www.alexa.com/topsites/countries/ZA'
p288
sa(dp289
S'South Korea'
p290
S'http://www.alexa.com/topsites/countries/KR'
p291
sa(dp292
S'Spain'
p293
S'http://www.alexa.com/topsites/countries/ES'
p294
sa(dp295
S'Sri Lanka'
p296
S'http://www.alexa.com/topsites/countries/LK'
p297
sa(dp298
S'Sweden'
p299
S'http://www.alexa.com/topsites/countries/SE'
p300
sa(dp301
S'Switzerland'
p302
S'http://www.alexa.com/topsites/countries/CH'
p303
sa(dp304
S'Syrian Arab Republic'
p305
S'http://www.alexa.com/topsites/countries/SY'
p306
sa(dp307
S'Taiwan'
p308
S'http://www.alexa.com/topsites/countries/TW'
p309
sa(dp310
S'Thailand'
p311
S'http://www.alexa.com/topsites/countries/TH'
p312
sa(dp313
S'Trinidad and Tobago'
p314
S'http://www.alexa.com/topsites/countries/TT'
p315
sa(dp316
S'Turkey'
p317
S'http://www.alexa.com/topsites/countries/TR'
p318
sa(dp319
S'Ukraine'
p320
S'http://www.alexa.com/topsites/countries/UA'
p321
sa(dp322
S'United Arab Emirates'
p323
S'http://www.alexa.com/topsites/countries/AE'
p324
sa(dp325
S'United Kingdom'
p326
S'http://www.alexa.com/topsites/countries/GB'
p327
sa(dp328
S'United States'
p329
S'http://www.alexa.com/topsites/countries/US'
p330
sa(dp331
S'Uruguay'
p332
S'http://www.alexa.com/topsites/countries/UY'
p333
sa(dp334
S'Uzbekistan'
p335
S'http://www.alexa.com/topsites/countries/UZ'
p336
sa(dp337
S'Venezuela'
p338
S'http://www.alexa.com/topsites/countries/VE'
p339
sa(dp340
S'Vietnam'
p341
S'http://www.alexa.com/topsites/countries/VN'
p342
sa(dp343
S'Yemen'
p344
S'http://www.alexa.com/topsites/countries/YE'
p345
sa.